target datalayout = "e-m:e-p270:32:32-p271:32:32-p272:64:64-i64:64-i128:128-f80:128-n8:16:32:64-S128"
target triple = "x86_64-pc-linux-gnu"

%struct.AVFilterContext = type { ptr, ptr, ptr, ptr, ptr, i32, ptr, ptr, i32, ptr, ptr, i32, i32, ptr, ptr, ptr, ptr, i32, ptr, i32, i32 }
%struct.CellAutoContext = type { ptr, i32, i32, ptr, ptr, ptr, i64, ptr, i32, i32, i8, i64, %struct.AVRational, double, i64, i32, i32, i32, i64, %struct.AVLFG, ptr }
%struct.AVRational = type { i32, i32 }
%struct.AVLFG = type { [64 x i32], i32 }

@.str.14 = private unnamed_addr constant [5 x i8] c"size\00", align 1
@.str.33 = private unnamed_addr constant [8 x i8] c"320x518\00", align 1
@.str.34 = private unnamed_addr constant [57 x i8] c"Only one of the filename or pattern options can be used\0A\00", align 1
@.str.35 = private unnamed_addr constant [62 x i8] c"s:%dx%d r:%d/%d rule:%d stitch:%d scroll:%d full:%d seed:%ld\0A\00", align 1

; Function Attrs: inlinehint nounwind uwtable
define internal i32 @av_lfg_get(ptr noundef %0) #5 {
  %2 = alloca ptr, align 8
  %3 = alloca i32, align 4
  store ptr %0, ptr %2, align 8, !tbaa !82
  call void @llvm.lifetime.start.p0(i64 4, ptr %3) #9
  %4 = load ptr, ptr %2, align 8, !tbaa !82
  %5 = getelementptr inbounds nuw %struct.AVLFG, ptr %4, i32 0, i32 0
  %6 = load ptr, ptr %2, align 8, !tbaa !82
  %7 = getelementptr inbounds nuw %struct.AVLFG, ptr %6, i32 0, i32 1
  %8 = load i32, ptr %7, align 4, !tbaa !84
  %9 = sub nsw i32 %8, 24
  %10 = and i32 %9, 63
  %11 = sext i32 %10 to i64
  %12 = getelementptr inbounds [64 x i32], ptr %5, i64 0, i64 %11
  %13 = load i32, ptr %12, align 4, !tbaa !32
  %14 = load ptr, ptr %2, align 8, !tbaa !82
  %15 = getelementptr inbounds nuw %struct.AVLFG, ptr %14, i32 0, i32 0
  %16 = load ptr, ptr %2, align 8, !tbaa !82
  %17 = getelementptr inbounds nuw %struct.AVLFG, ptr %16, i32 0, i32 1
  %18 = load i32, ptr %17, align 4, !tbaa !84
  %19 = sub nsw i32 %18, 55
  %20 = and i32 %19, 63
  %21 = sext i32 %20 to i64
  %22 = getelementptr inbounds [64 x i32], ptr %15, i64 0, i64 %21
  %23 = load i32, ptr %22, align 4, !tbaa !32
  %24 = add i32 %13, %23
  %25 = load ptr, ptr %2, align 8, !tbaa !82
  %26 = getelementptr inbounds nuw %struct.AVLFG, ptr %25, i32 0, i32 0
  %27 = load ptr, ptr %2, align 8, !tbaa !82
  %28 = getelementptr inbounds nuw %struct.AVLFG, ptr %27, i32 0, i32 1
  %29 = load i32, ptr %28, align 4, !tbaa !84
  %30 = and i32 %29, 63
  %31 = sext i32 %30 to i64
  %32 = getelementptr inbounds [64 x i32], ptr %26, i64 0, i64 %31
  store i32 %24, ptr %32, align 4, !tbaa !32
  store i32 %24, ptr %3, align 4, !tbaa !32
  %33 = load ptr, ptr %2, align 8, !tbaa !82
  %34 = getelementptr inbounds nuw %struct.AVLFG, ptr %33, i32 0, i32 1
  %35 = load i32, ptr %34, align 4, !tbaa !84
  %36 = add i32 %35, 1
  store i32 %36, ptr %34, align 4, !tbaa !84
  %37 = load i32, ptr %3, align 4, !tbaa !32
  call void @llvm.lifetime.end.p0(i64 4, ptr %3) #9
  ret i32 %37
}

; Function Attrs: nounwind uwtable
define internal i32 @init_pattern_from_file(ptr noundef %0) #1 {
  %2 = alloca i32, align 4
  %3 = alloca ptr, align 8
  %4 = alloca ptr, align 8
  %5 = alloca i32, align 4
  %6 = alloca i32, align 4
  store ptr %0, ptr %3, align 8, !tbaa !4
  call void @llvm.lifetime.start.p0(i64 8, ptr %4) #9
  %7 = load ptr, ptr %3, align 8, !tbaa !4
  %8 = getelementptr inbounds nuw %struct.AVFilterContext, ptr %7, i32 0, i32 9
  %9 = load ptr, ptr %8, align 8, !tbaa !9
  store ptr %9, ptr %4, align 8, !tbaa !22
  call void @llvm.lifetime.start.p0(i64 4, ptr %5) #9
  %10 = load ptr, ptr %4, align 8, !tbaa !22
  %11 = getelementptr inbounds nuw %struct.CellAutoContext, ptr %10, i32 0, i32 3
  %12 = load ptr, ptr %11, align 8, !tbaa !30
  %13 = load ptr, ptr %4, align 8, !tbaa !22
  %14 = getelementptr inbounds nuw %struct.CellAutoContext, ptr %13, i32 0, i32 5
  %15 = load ptr, ptr %4, align 8, !tbaa !22
  %16 = getelementptr inbounds nuw %struct.CellAutoContext, ptr %15, i32 0, i32 6
  %17 = load ptr, ptr %3, align 8, !tbaa !4
  %18 = call i32 @av_file_map(ptr noundef %12, ptr noundef %14, ptr noundef %16, i32 noundef 0, ptr noundef %17)
  store i32 %18, ptr %5, align 4, !tbaa !32
  %19 = load i32, ptr %5, align 4, !tbaa !32
  %20 = icmp slt i32 %19, 0
  br i1 %20, label %21, label %23

21:                                               ; preds = %1
  %22 = load i32, ptr %5, align 4, !tbaa !32
  store i32 %22, ptr %2, align 4
  store i32 1, ptr %6, align 4
  br label %55

23:                                               ; preds = %1
  %24 = load ptr, ptr %4, align 8, !tbaa !22
  %25 = getelementptr inbounds nuw %struct.CellAutoContext, ptr %24, i32 0, i32 6
  %26 = load i64, ptr %25, align 8, !tbaa !48
  %27 = add i64 %26, 1
  %28 = call noalias ptr @av_malloc(i64 noundef %27)
  %29 = load ptr, ptr %4, align 8, !tbaa !22
  %30 = getelementptr inbounds nuw %struct.CellAutoContext, ptr %29, i32 0, i32 20
  store ptr %28, ptr %30, align 8, !tbaa !31
  %31 = load ptr, ptr %4, align 8, !tbaa !22
  %32 = getelementptr inbounds nuw %struct.CellAutoContext, ptr %31, i32 0, i32 20
  %33 = load ptr, ptr %32, align 8, !tbaa !31
  %34 = icmp ne ptr %33, null
  br i1 %34, label %36, label %35

35:                                               ; preds = %23
  store i32 -12, ptr %2, align 4
  store i32 1, ptr %6, align 4
  br label %55

36:                                               ; preds = %23
  %37 = load ptr, ptr %4, align 8, !tbaa !22
  %38 = getelementptr inbounds nuw %struct.CellAutoContext, ptr %37, i32 0, i32 20
  %39 = load ptr, ptr %38, align 8, !tbaa !31
  %40 = load ptr, ptr %4, align 8, !tbaa !22
  %41 = getelementptr inbounds nuw %struct.CellAutoContext, ptr %40, i32 0, i32 5
  %42 = load ptr, ptr %41, align 8, !tbaa !47
  %43 = load ptr, ptr %4, align 8, !tbaa !22
  %44 = getelementptr inbounds nuw %struct.CellAutoContext, ptr %43, i32 0, i32 6
  %45 = load i64, ptr %44, align 8, !tbaa !48
  call void @llvm.memcpy.p0.p0.i64(ptr align 1 %39, ptr align 1 %42, i64 %45, i1 false)
  %46 = load ptr, ptr %4, align 8, !tbaa !22
  %47 = getelementptr inbounds nuw %struct.CellAutoContext, ptr %46, i32 0, i32 20
  %48 = load ptr, ptr %47, align 8, !tbaa !31
  %49 = load ptr, ptr %4, align 8, !tbaa !22
  %50 = getelementptr inbounds nuw %struct.CellAutoContext, ptr %49, i32 0, i32 6
  %51 = load i64, ptr %50, align 8, !tbaa !48
  %52 = getelementptr inbounds nuw i8, ptr %48, i64 %51
  store i8 0, ptr %52, align 1, !tbaa !38
  %53 = load ptr, ptr %3, align 8, !tbaa !4
  %54 = call i32 @init_pattern_from_string(ptr noundef %53)
  store i32 %54, ptr %2, align 4
  store i32 1, ptr %6, align 4
  br label %55

55:                                               ; preds = %36, %35, %21
  call void @llvm.lifetime.end.p0(i64 4, ptr %5) #9
  call void @llvm.lifetime.end.p0(i64 8, ptr %4) #9
  %56 = load i32, ptr %2, align 4
  ret i32 %56
}

; Function Attrs: cold nounwind optsize uwtable
define internal i32 @init(ptr noundef %0) #0 {
  %2 = alloca i32, align 4
  %3 = alloca ptr, align 8
  %4 = alloca ptr, align 8
  %5 = alloca i32, align 4
  %6 = alloca i32, align 4
  %7 = alloca i32, align 4
  %8 = alloca double, align 8
  store ptr %0, ptr %3, align 8, !tbaa !4
  call void @llvm.lifetime.start.p0(i64 8, ptr %4) #9
  %9 = load ptr, ptr %3, align 8, !tbaa !4
  %10 = getelementptr inbounds nuw %struct.AVFilterContext, ptr %9, i32 0, i32 9
  %11 = load ptr, ptr %10, align 8, !tbaa !9
  store ptr %11, ptr %4, align 8, !tbaa !22
  call void @llvm.lifetime.start.p0(i64 4, ptr %5) #9
  %12 = load ptr, ptr %4, align 8, !tbaa !22
  %13 = getelementptr inbounds nuw %struct.CellAutoContext, ptr %12, i32 0, i32 1
  %14 = load i32, ptr %13, align 8, !tbaa !24
  %15 = icmp ne i32 %14, 0
  br i1 %15, label %29, label %16

16:                                               ; preds = %1
  %17 = load ptr, ptr %4, align 8, !tbaa !22
  %18 = getelementptr inbounds nuw %struct.CellAutoContext, ptr %17, i32 0, i32 3
  %19 = load ptr, ptr %18, align 8, !tbaa !30
  %20 = icmp ne ptr %19, null
  br i1 %20, label %29, label %21

21:                                               ; preds = %16
  %22 = load ptr, ptr %4, align 8, !tbaa !22
  %23 = getelementptr inbounds nuw %struct.CellAutoContext, ptr %22, i32 0, i32 20
  %24 = load ptr, ptr %23, align 8, !tbaa !31
  %25 = icmp ne ptr %24, null
  br i1 %25, label %29, label %26

26:                                               ; preds = %21
  %27 = load ptr, ptr %4, align 8, !tbaa !22
  %28 = call i32 @av_opt_set(ptr noundef %27, ptr noundef @.str.14, ptr noundef @.str.33, i32 noundef 0)
  br label %29

29:                                               ; preds = %26, %21, %16, %1
  %30 = load ptr, ptr %4, align 8, !tbaa !22
  %31 = getelementptr inbounds nuw %struct.CellAutoContext, ptr %30, i32 0, i32 3
  %32 = load ptr, ptr %31, align 8, !tbaa !30
  %33 = icmp ne ptr %32, null
  br i1 %33, label %34, label %41

34:                                               ; preds = %29
  %35 = load ptr, ptr %4, align 8, !tbaa !22
  %36 = getelementptr inbounds nuw %struct.CellAutoContext, ptr %35, i32 0, i32 20
  %37 = load ptr, ptr %36, align 8, !tbaa !31
  %38 = icmp ne ptr %37, null
  br i1 %38, label %39, label %41

39:                                               ; preds = %34
  %40 = load ptr, ptr %3, align 8, !tbaa !4
  call void (ptr, i32, ptr, ...) @av_log(ptr noundef %40, i32 noundef 16, ptr noundef @.str.34)
  store i32 -22, ptr %2, align 4
  store i32 1, ptr %6, align 4
  br label %165

41:                                               ; preds = %34, %29
  %42 = load ptr, ptr %4, align 8, !tbaa !22
  %43 = getelementptr inbounds nuw %struct.CellAutoContext, ptr %42, i32 0, i32 3
  %44 = load ptr, ptr %43, align 8, !tbaa !30
  %45 = icmp ne ptr %44, null
  br i1 %45, label %46, label %53

46:                                               ; preds = %41
  %47 = load ptr, ptr %3, align 8, !tbaa !4
  %48 = call i32 @init_pattern_from_file(ptr noundef %47)
  store i32 %48, ptr %5, align 4, !tbaa !32
  %49 = icmp slt i32 %48, 0
  br i1 %49, label %50, label %52

50:                                               ; preds = %46
  %51 = load i32, ptr %5, align 4, !tbaa !32
  store i32 %51, ptr %2, align 4
  store i32 1, ptr %6, align 4
  br label %165

52:                                               ; preds = %46
  br label %133

53:                                               ; preds = %41
  %54 = load ptr, ptr %4, align 8, !tbaa !22
  %55 = getelementptr inbounds nuw %struct.CellAutoContext, ptr %54, i32 0, i32 20
  %56 = load ptr, ptr %55, align 8, !tbaa !31
  %57 = icmp ne ptr %56, null
  br i1 %57, label %58, label %65

58:                                               ; preds = %53
  %59 = load ptr, ptr %3, align 8, !tbaa !4
  %60 = call i32 @init_pattern_from_string(ptr noundef %59)
  store i32 %60, ptr %5, align 4, !tbaa !32
  %61 = icmp slt i32 %60, 0
  br i1 %61, label %62, label %64

62:                                               ; preds = %58
  %63 = load i32, ptr %5, align 4, !tbaa !32
  store i32 %63, ptr %2, align 4
  store i32 1, ptr %6, align 4
  br label %165

64:                                               ; preds = %58
  br label %132

65:                                               ; preds = %53
  call void @llvm.lifetime.start.p0(i64 4, ptr %7) #9
  %66 = load ptr, ptr %4, align 8, !tbaa !22
  %67 = getelementptr inbounds nuw %struct.CellAutoContext, ptr %66, i32 0, i32 1
  %68 = load i32, ptr %67, align 8, !tbaa !24
  %69 = sext i32 %68 to i64
  %70 = load ptr, ptr %4, align 8, !tbaa !22
  %71 = getelementptr inbounds nuw %struct.CellAutoContext, ptr %70, i32 0, i32 2
  %72 = load i32, ptr %71, align 4, !tbaa !33
  %73 = sext i32 %72 to i64
  %74 = mul i64 %73, 1
  %75 = call noalias ptr @av_calloc(i64 noundef %69, i64 noundef %74)
  %76 = load ptr, ptr %4, align 8, !tbaa !22
  %77 = getelementptr inbounds nuw %struct.CellAutoContext, ptr %76, i32 0, i32 7
  store ptr %75, ptr %77, align 8, !tbaa !34
  %78 = load ptr, ptr %4, align 8, !tbaa !22
  %79 = getelementptr inbounds nuw %struct.CellAutoContext, ptr %78, i32 0, i32 7
  %80 = load ptr, ptr %79, align 8, !tbaa !34
  %81 = icmp ne ptr %80, null
  br i1 %81, label %83, label %82

82:                                               ; preds = %65
  store i32 -12, ptr %2, align 4
  store i32 1, ptr %6, align 4
  br label %129

83:                                               ; preds = %65
  %84 = load ptr, ptr %4, align 8, !tbaa !22
  %85 = getelementptr inbounds nuw %struct.CellAutoContext, ptr %84, i32 0, i32 14
  %86 = load i64, ptr %85, align 8, !tbaa !35
  %87 = icmp eq i64 %86, -1
  br i1 %87, label %88, label %93

88:                                               ; preds = %83
  %89 = call i32 @av_get_random_seed()
  %90 = zext i32 %89 to i64
  %91 = load ptr, ptr %4, align 8, !tbaa !22
  %92 = getelementptr inbounds nuw %struct.CellAutoContext, ptr %91, i32 0, i32 14
  store i64 %90, ptr %92, align 8, !tbaa !35
  br label %93

93:                                               ; preds = %88, %83
  %94 = load ptr, ptr %4, align 8, !tbaa !22
  %95 = getelementptr inbounds nuw %struct.CellAutoContext, ptr %94, i32 0, i32 19
  %96 = load ptr, ptr %4, align 8, !tbaa !22
  %97 = getelementptr inbounds nuw %struct.CellAutoContext, ptr %96, i32 0, i32 14
  %98 = load i64, ptr %97, align 8, !tbaa !35
  %99 = trunc i64 %98 to i32
  call void @av_lfg_init(ptr noundef %95, i32 noundef %99)
  store i32 0, ptr %7, align 4, !tbaa !32
  br label %100

100:                                              ; preds = %125, %93
  %101 = load i32, ptr %7, align 4, !tbaa !32
  %102 = load ptr, ptr %4, align 8, !tbaa !22
  %103 = getelementptr inbounds nuw %struct.CellAutoContext, ptr %102, i32 0, i32 1
  %104 = load i32, ptr %103, align 8, !tbaa !24
  %105 = icmp slt i32 %101, %104
  br i1 %105, label %106, label %128

106:                                              ; preds = %100
  call void @llvm.lifetime.start.p0(i64 8, ptr %8) #9
  %107 = load ptr, ptr %4, align 8, !tbaa !22
  %108 = getelementptr inbounds nuw %struct.CellAutoContext, ptr %107, i32 0, i32 19
  %109 = call i32 @av_lfg_get(ptr noundef %108)
  %110 = uitofp i32 %109 to double
  %111 = fdiv nsz double %110, 0x41EFFFFFFFE00000
  store double %111, ptr %8, align 8, !tbaa !36
  %112 = load double, ptr %8, align 8, !tbaa !36
  %113 = load ptr, ptr %4, align 8, !tbaa !22
  %114 = getelementptr inbounds nuw %struct.CellAutoContext, ptr %113, i32 0, i32 13
  %115 = load double, ptr %114, align 8, !tbaa !37
  %116 = fcmp nsz ole double %112, %115
  br i1 %116, label %117, label %124

117:                                              ; preds = %106
  %118 = load ptr, ptr %4, align 8, !tbaa !22
  %119 = getelementptr inbounds nuw %struct.CellAutoContext, ptr %118, i32 0, i32 7
  %120 = load ptr, ptr %119, align 8, !tbaa !34
  %121 = load i32, ptr %7, align 4, !tbaa !32
  %122 = sext i32 %121 to i64
  %123 = getelementptr inbounds i8, ptr %120, i64 %122
  store i8 1, ptr %123, align 1, !tbaa !38
  br label %124

124:                                              ; preds = %117, %106
  call void @llvm.lifetime.end.p0(i64 8, ptr %8) #9
  br label %125

125:                                              ; preds = %124
  %126 = load i32, ptr %7, align 4, !tbaa !32
  %127 = add nsw i32 %126, 1
  store i32 %127, ptr %7, align 4, !tbaa !32
  br label %100, !llvm.loop !39

128:                                              ; preds = %100
  store i32 0, ptr %6, align 4
  br label %129

129:                                              ; preds = %128, %82
  call void @llvm.lifetime.end.p0(i64 4, ptr %7) #9
  %130 = load i32, ptr %6, align 4
  switch i32 %130, label %165 [
    i32 0, label %131
  ]

131:                                              ; preds = %129
  br label %132

132:                                              ; preds = %131, %64
  br label %133

133:                                              ; preds = %132, %52
  %134 = load ptr, ptr %3, align 8, !tbaa !4
  %135 = load ptr, ptr %4, align 8, !tbaa !22
  %136 = getelementptr inbounds nuw %struct.CellAutoContext, ptr %135, i32 0, i32 1
  %137 = load i32, ptr %136, align 8, !tbaa !24
  %138 = load ptr, ptr %4, align 8, !tbaa !22
  %139 = getelementptr inbounds nuw %struct.CellAutoContext, ptr %138, i32 0, i32 2
  %140 = load i32, ptr %139, align 4, !tbaa !33
  %141 = load ptr, ptr %4, align 8, !tbaa !22
  %142 = getelementptr inbounds nuw %struct.CellAutoContext, ptr %141, i32 0, i32 12
  %143 = getelementptr inbounds nuw %struct.AVRational, ptr %142, i32 0, i32 0
  %144 = load i32, ptr %143, align 8, !tbaa !41
  %145 = load ptr, ptr %4, align 8, !tbaa !22
  %146 = getelementptr inbounds nuw %struct.CellAutoContext, ptr %145, i32 0, i32 12
  %147 = getelementptr inbounds nuw %struct.AVRational, ptr %146, i32 0, i32 1
  %148 = load i32, ptr %147, align 4, !tbaa !42
  %149 = load ptr, ptr %4, align 8, !tbaa !22
  %150 = getelementptr inbounds nuw %struct.CellAutoContext, ptr %149, i32 0, i32 10
  %151 = load i8, ptr %150, align 8, !tbaa !43
  %152 = zext i8 %151 to i32
  %153 = load ptr, ptr %4, align 8, !tbaa !22
  %154 = getelementptr inbounds nuw %struct.CellAutoContext, ptr %153, i32 0, i32 15
  %155 = load i32, ptr %154, align 8, !tbaa !44
  %156 = load ptr, ptr %4, align 8, !tbaa !22
  %157 = getelementptr inbounds nuw %struct.CellAutoContext, ptr %156, i32 0, i32 16
  %158 = load i32, ptr %157, align 4, !tbaa !45
  %159 = load ptr, ptr %4, align 8, !tbaa !22
  %160 = getelementptr inbounds nuw %struct.CellAutoContext, ptr %159, i32 0, i32 17
  %161 = load i32, ptr %160, align 8, !tbaa !46
  %162 = load ptr, ptr %4, align 8, !tbaa !22
  %163 = getelementptr inbounds nuw %struct.CellAutoContext, ptr %162, i32 0, i32 14
  %164 = load i64, ptr %163, align 8, !tbaa !35
  call void (ptr, i32, ptr, ...) @av_log(ptr noundef %134, i32 noundef 40, ptr noundef @.str.35, i32 noundef %137, i32 noundef %140, i32 noundef %144, i32 noundef %148, i32 noundef %152, i32 noundef %155, i32 noundef %158, i32 noundef %161, i64 noundef %164)
  store i32 0, ptr %2, align 4
  store i32 1, ptr %6, align 4
  br label %165

165:                                              ; preds = %133, %129, %62, %50, %39
  call void @llvm.lifetime.end.p0(i64 4, ptr %5) #9
  call void @llvm.lifetime.end.p0(i64 8, ptr %4) #9
  %166 = load i32, ptr %2, align 4
  ret i32 %166
}