; Function Attrs: cold nounwind optsize uwtable
define internal range(i32 -2147483648, 1) i32 @init(ptr noundef %0) #0 {
  %2 = getelementptr inbounds nuw i8, ptr %0, i64 72
  %3 = load ptr, ptr %2, align 8, !tbaa !4
  %4 = getelementptr inbounds nuw i8, ptr %3, i64 8
  %5 = load i32, ptr %4, align 8, !tbaa !20
  %.not = icmp eq i32 %5, 0
  br i1 %.not, label %6, label %14

6:                                                ; preds = %1
  %7 = getelementptr inbounds nuw i8, ptr %3, i64 16
  %8 = load ptr, ptr %7, align 8, !tbaa !26
  %.not45 = icmp eq ptr %8, null
  br i1 %.not45, label %9, label %14

9:                                                ; preds = %6
  %10 = getelementptr inbounds nuw i8, ptr %3, i64 392
  %11 = load ptr, ptr %10, align 8, !tbaa !27
  %.not46 = icmp eq ptr %11, null
  br i1 %.not46, label %12, label %14

12:                                               ; preds = %9
  %13 = tail call i32 @av_opt_set(ptr noundef nonnull %3, ptr noundef nonnull @.str.14, ptr noundef nonnull @.str.33, i32 noundef 0) #7
  br label %14

14:                                               ; preds = %12, %9, %6, %1
  %15 = getelementptr inbounds nuw i8, ptr %3, i64 16
  %16 = load ptr, ptr %15, align 8, !tbaa !26
  %.not47 = icmp eq ptr %16, null
  %17 = getelementptr inbounds nuw i8, ptr %3, i64 392
  %18 = load ptr, ptr %17, align 8, !tbaa !27
  %.not50 = icmp eq ptr %18, null
  br i1 %.not47, label %39, label %19

19:                                               ; preds = %14
  br i1 %.not50, label %21, label %20

20:                                               ; preds = %19
  tail call void (ptr, i32, ptr, ...) @av_log(ptr noundef nonnull %0, i32 noundef 16, ptr noundef nonnull @.str.34) #7
  br label %.critedge

21:                                               ; preds = %19
  %22 = load ptr, ptr %2, align 8, !tbaa !4
  %23 = getelementptr inbounds nuw i8, ptr %22, i64 16
  %24 = load ptr, ptr %23, align 8, !tbaa !26
  %25 = getelementptr inbounds nuw i8, ptr %22, i64 32
  %26 = getelementptr inbounds nuw i8, ptr %22, i64 40
  %27 = tail call i32 @av_file_map(ptr noundef %24, ptr noundef nonnull %25, ptr noundef nonnull %26, i32 noundef 0, ptr noundef nonnull %0) #7
  %28 = icmp slt i32 %27, 0
  br i1 %28, label %.critedge, label %29

29:                                               ; preds = %21
  %30 = load i64, ptr %26, align 8, !tbaa !28
  %31 = add i64 %30, 1
  %32 = tail call noalias ptr @av_malloc(i64 noundef %31) #7
  %33 = getelementptr inbounds nuw i8, ptr %22, i64 392
  store ptr %32, ptr %33, align 8, !tbaa !27
  %.not.i = icmp eq ptr %32, null
  br i1 %.not.i, label %.critedge, label %init_pattern_from_file.exit

init_pattern_from_file.exit:                      ; preds = %29
  %34 = load ptr, ptr %25, align 8, !tbaa !29
  %35 = load i64, ptr %26, align 8, !tbaa !28
  tail call void @llvm.memcpy.p0.p0.i64(ptr nonnull align 1 %32, ptr align 1 %34, i64 %35, i1 false)
  %36 = getelementptr inbounds nuw i8, ptr %32, i64 %35
  store i8 0, ptr %36, align 1, !tbaa !30
  %37 = tail call fastcc i32 @init_pattern_from_string(ptr noundef nonnull %0)
  %38 = icmp slt i32 %37, 0
  br i1 %38, label %.critedge, label %.loopexit

39:                                               ; preds = %14
  br i1 %.not50, label %43, label %40

40:                                               ; preds = %39
  %41 = tail call fastcc i32 @init_pattern_from_string(ptr noundef nonnull %0)
  %42 = icmp slt i32 %41, 0
  br i1 %42, label %.critedge, label %.loopexit

43:                                               ; preds = %39
  %44 = load i32, ptr %4, align 8, !tbaa !20
  %45 = sext i32 %44 to i64
  %46 = getelementptr inbounds nuw i8, ptr %3, i64 12
  %47 = load i32, ptr %46, align 4, !tbaa !31
  %48 = sext i32 %47 to i64
  %49 = tail call noalias ptr @av_calloc(i64 noundef %45, i64 noundef %48) #7
  %50 = getelementptr inbounds nuw i8, ptr %3, i64 48
  store ptr %49, ptr %50, align 8, !tbaa !32
  %.not51.not = icmp eq ptr %49, null
  br i1 %.not51.not, label %.critedge, label %51

51:                                               ; preds = %43
  %52 = getelementptr inbounds nuw i8, ptr %3, i64 96
  %53 = load i64, ptr %52, align 8, !tbaa !33
  %54 = icmp eq i64 %53, -1
  br i1 %54, label %55, label %58

55:                                               ; preds = %51
  %56 = tail call i32 @av_get_random_seed() #7
  %57 = zext i32 %56 to i64
  store i64 %57, ptr %52, align 8, !tbaa !33
  br label %58

58:                                               ; preds = %55, %51
  %59 = phi i64 [ %57, %55 ], [ %53, %51 ]
  %60 = getelementptr inbounds nuw i8, ptr %3, i64 128
  %61 = trunc i64 %59 to i32
  tail call void @av_lfg_init(ptr noundef nonnull %60, i32 noundef %61) #7
  %62 = load i32, ptr %4, align 8, !tbaa !20
  %63 = icmp sgt i32 %62, 0
  br i1 %63, label %.lr.ph, label %.loopexit

.lr.ph:                                           ; preds = %58
  %64 = getelementptr inbounds nuw i8, ptr %3, i64 384
  %65 = getelementptr inbounds nuw i8, ptr %3, i64 88
  br label %66

66:                                               ; preds = %.lr.ph, %91
  %67 = phi i32 [ %62, %.lr.ph ], [ %92, %91 ]
  %indvars.iv = phi i64 [ 0, %.lr.ph ], [ %indvars.iv.next, %91 ]
  %68 = load i32, ptr %64, align 4, !tbaa !34
  %69 = add i32 %68, 40
  %70 = and i32 %69, 63
  %71 = zext nneg i32 %70 to i64
  %72 = getelementptr inbounds nuw [64 x i32], ptr %60, i64 0, i64 %71
  %73 = load i32, ptr %72, align 4, !tbaa !35
  %74 = add i32 %68, 9
  %75 = and i32 %74, 63
  %76 = zext nneg i32 %75 to i64
  %77 = getelementptr inbounds nuw [64 x i32], ptr %60, i64 0, i64 %76
  %78 = load i32, ptr %77, align 4, !tbaa !35
  %79 = add i32 %78, %73
  %80 = and i32 %68, 63
  %81 = zext nneg i32 %80 to i64
  %82 = getelementptr inbounds nuw [64 x i32], ptr %60, i64 0, i64 %81
  store i32 %79, ptr %82, align 4, !tbaa !35
  %83 = add i32 %68, 1
  store i32 %83, ptr %64, align 4, !tbaa !34
  %84 = uitofp i32 %79 to double
  %85 = fdiv nsz double %84, 0x41EFFFFFFFE00000
  %86 = load double, ptr %65, align 8, !tbaa !36
  %87 = fcmp nsz ugt double %85, %86
  br i1 %87, label %91, label %88

88:                                               ; preds = %66
  %89 = load ptr, ptr %50, align 8, !tbaa !32
  %90 = getelementptr inbounds nuw i8, ptr %89, i64 %indvars.iv
  store i8 1, ptr %90, align 1, !tbaa !30
  %.pre = load i32, ptr %4, align 8, !tbaa !20
  br label %91

91:                                               ; preds = %88, %66
  %92 = phi i32 [ %.pre, %88 ], [ %67, %66 ]
  %indvars.iv.next = add nuw nsw i64 %indvars.iv, 1
  %93 = sext i32 %92 to i64
  %94 = icmp slt i64 %indvars.iv.next, %93
  br i1 %94, label %66, label %.loopexit, !llvm.loop !37

.loopexit:                                        ; preds = %91, %58, %40, %init_pattern_from_file.exit
  %95 = load i32, ptr %4, align 8, !tbaa !20
  %96 = getelementptr inbounds nuw i8, ptr %3, i64 12
  %97 = load i32, ptr %96, align 4, !tbaa !31
  %98 = getelementptr inbounds nuw i8, ptr %3, i64 80
  %99 = load i32, ptr %98, align 8, !tbaa !39
  %100 = getelementptr inbounds nuw i8, ptr %3, i64 84
  %101 = load i32, ptr %100, align 4, !tbaa !40
  %102 = getelementptr inbounds nuw i8, ptr %3, i64 64
  %103 = load i8, ptr %102, align 8, !tbaa !41
  %104 = zext i8 %103 to i32
  %105 = getelementptr inbounds nuw i8, ptr %3, i64 104
  %106 = load i32, ptr %105, align 8, !tbaa !42
  %107 = getelementptr inbounds nuw i8, ptr %3, i64 108
  %108 = load i32, ptr %107, align 4, !tbaa !43
  %109 = getelementptr inbounds nuw i8, ptr %3, i64 112
  %110 = load i32, ptr %109, align 8, !tbaa !44
  %111 = getelementptr inbounds nuw i8, ptr %3, i64 96
  %112 = load i64, ptr %111, align 8, !tbaa !33
  tail call void (ptr, i32, ptr, ...) @av_log(ptr noundef %0, i32 noundef 40, ptr noundef nonnull @.str.35, i32 noundef %95, i32 noundef %97, i32 noundef %99, i32 noundef %101, i32 noundef %104, i32 noundef %106, i32 noundef %108, i32 noundef %110, i64 noundef %112) #7
  br label %.critedge

.critedge:                                        ; preds = %29, %21, %43, %40, %init_pattern_from_file.exit, %.loopexit, %20
  %.0 = phi i32 [ -22, %20 ], [ 0, %.loopexit ], [ %37, %init_pattern_from_file.exit ], [ %41, %40 ], [ -12, %43 ], [ -12, %29 ], [ %27, %21 ]
  ret i32 %.0
}